target datalayout = "e-m:e-p270:32:32-p271:32:32-p272:64:64-i64:64-i128:128-f80:128-n8:16:32:64-S128"
target triple = "x86_64-pc-linux-gnu"

%"class.open3d::core::Dtype" = type { i32, i64, [16 x i8] }
%"class.open3d::core::HashSet" = type { %"class.open3d::core::IsDevice", %"class.std::shared_ptr" }
%"class.open3d::core::IsDevice" = type { ptr }
%"class.std::shared_ptr" = type { %"class.std::__shared_ptr" }
%"class.std::__shared_ptr" = type { ptr, %"class.std::__shared_count" }
%"class.std::__shared_count" = type { ptr }
%"class.std::vector" = type { %"struct.std::_Vector_base" }
%"struct.std::_Vector_base" = type { %"struct.std::_Vector_base<open3d::core::Dtype, std::allocator<open3d::core::Dtype>>::_Vector_impl" }
%"struct.std::_Vector_base<open3d::core::Dtype, std::allocator<open3d::core::Dtype>>::_Vector_impl" = type { %"struct.std::_Vector_base<open3d::core::Dtype, std::allocator<open3d::core::Dtype>>::_Vector_impl_data" }
%"struct.std::_Vector_base<open3d::core::Dtype, std::allocator<open3d::core::Dtype>>::_Vector_impl_data" = type { ptr, ptr, ptr }
%"class.std::vector.0" = type { %"struct.std::_Vector_base.1" }
%"struct.std::_Vector_base.1" = type { %"struct.std::_Vector_base<open3d::core::SizeVector, std::allocator<open3d::core::SizeVector>>::_Vector_impl" }
%"struct.std::_Vector_base<open3d::core::SizeVector, std::allocator<open3d::core::SizeVector>>::_Vector_impl" = type { %"struct.std::_Vector_base<open3d::core::SizeVector, std::allocator<open3d::core::SizeVector>>::_Vector_impl_data" }
%"struct.std::_Vector_base<open3d::core::SizeVector, std::allocator<open3d::core::SizeVector>>::_Vector_impl_data" = type { ptr, ptr, ptr }
%"class.open3d::core::SizeVector" = type { %"class.open3d::core::SmallVector" }
%"class.open3d::core::SmallVector" = type { %"class.open3d::core::SmallVectorImpl", %"struct.open3d::core::SmallVectorStorage" }
%"class.open3d::core::SmallVectorImpl" = type { %"class.open3d::core::SmallVectorTemplateBase" }
%"class.open3d::core::SmallVectorTemplateBase" = type { %"class.open3d::core::SmallVectorTemplateCommon" }
%"class.open3d::core::SmallVectorTemplateCommon" = type { %"class.open3d::core::SmallVectorBase" }
%"class.open3d::core::SmallVectorBase" = type { ptr, i32, i32 }
%"struct.open3d::core::SmallVectorStorage" = type { [32 x i8] }
%"class.open3d::core::HashMap" = type { %"class.open3d::core::IsDevice", %"class.std::shared_ptr.9", %"class.open3d::core::Dtype", %"class.open3d::core::SizeVector", %"class.std::vector", %"class.std::vector.0" }
%"class.std::shared_ptr.9" = type { %"class.std::__shared_ptr.10" }
%"class.std::__shared_ptr.10" = type { ptr, %"class.std::__shared_count" }

@_ZN6open3d4core7HashSetC1ERKNS0_7HashMapE = unnamed_addr alias void (ptr, ptr), ptr @_ZN6open3d4core7HashSetC2ERKNS0_7HashMapE

; Function Attrs: mustprogress nounwind ssp uwtable
define linkonce_odr noundef ptr @_ZNKSt12__shared_ptrIN6open3d4core7HashMapELN9__gnu_cxx12_Lock_policyE2EE3getEv(ptr noundef nonnull align 8 dereferenceable(16) %0) #0 comdat align 2 {
  %2 = alloca ptr, align 8
  store ptr %0, ptr %2, align 8, !tbaa !32
  %3 = load ptr, ptr %2, align 8
  %4 = getelementptr inbounds nuw %"class.std::__shared_ptr", ptr %3, i32 0, i32 0
  %5 = load ptr, ptr %4, align 8, !tbaa !40
  ret ptr %5
}

; Function Attrs: mustprogress nounwind ssp uwtable
define linkonce_odr noundef ptr @_ZNKSt19__shared_ptr_accessIN6open3d4core7HashMapELN9__gnu_cxx12_Lock_policyE2ELb0ELb0EE6_M_getEv(ptr noundef nonnull align 1 dereferenceable(1) %0) #0 comdat align 2 {
  %2 = alloca ptr, align 8
  store ptr %0, ptr %2, align 8, !tbaa !129
  %3 = load ptr, ptr %2, align 8
  %4 = call noundef ptr @_ZNKSt12__shared_ptrIN6open3d4core7HashMapELN9__gnu_cxx12_Lock_policyE2EE3getEv(ptr noundef nonnull align 8 dereferenceable(16) %3) #19
  ret ptr %4
}

; Function Attrs: mustprogress nounwind ssp uwtable
define linkonce_odr noundef ptr @_ZNKSt19__shared_ptr_accessIN6open3d4core7HashMapELN9__gnu_cxx12_Lock_policyE2ELb0ELb0EEptEv(ptr noundef nonnull align 1 dereferenceable(1) %0) #0 comdat align 2 {
  %2 = alloca ptr, align 8
  store ptr %0, ptr %2, align 8, !tbaa !129
  %3 = load ptr, ptr %2, align 8
  %4 = call noundef ptr @_ZNKSt19__shared_ptr_accessIN6open3d4core7HashMapELN9__gnu_cxx12_Lock_policyE2ELb0ELb0EE6_M_getEv(ptr noundef nonnull align 1 dereferenceable(1) %3) #19
  ret ptr %4
}

; Function Attrs: mustprogress ssp uwtable
define void @_ZNK6open3d4core7HashSet2ToERKNS0_6DeviceEb(ptr dead_on_unwind noalias writable sret(%"class.open3d::core::HashSet") align 8 %0, ptr noundef nonnull align 8 dereferenceable(24) %1, ptr noundef nonnull align 4 dereferenceable(8) %2, i1 noundef zeroext %3) #1 align 2 personality ptr @__gxx_personality_v0 {
  %5 = alloca ptr, align 8
  %6 = alloca ptr, align 8
  %7 = alloca ptr, align 8
  %8 = alloca i8, align 1
  %9 = alloca %"class.open3d::core::HashMap", align 8
  %10 = alloca ptr, align 8
  %11 = alloca i32, align 4
  store ptr %0, ptr %5, align 8
  store ptr %1, ptr %6, align 8, !tbaa !4
  store ptr %2, ptr %7, align 8, !tbaa !17
  %12 = zext i1 %3 to i8
  store i8 %12, ptr %8, align 1, !tbaa !107
  %13 = load ptr, ptr %6, align 8
  call void @llvm.lifetime.start.p0(i64 152, ptr %9) #19
  %14 = getelementptr inbounds nuw %"class.open3d::core::HashSet", ptr %13, i32 0, i32 1
  %15 = call noundef ptr @_ZNKSt19__shared_ptr_accessIN6open3d4core7HashMapELN9__gnu_cxx12_Lock_policyE2ELb0ELb0EEptEv(ptr noundef nonnull align 1 dereferenceable(1) %14) #19
  %16 = load ptr, ptr %7, align 8, !tbaa !17
  %17 = load i8, ptr %8, align 1, !tbaa !107, !range !180, !noundef !181
  %18 = trunc i8 %17 to i1
  call void @_ZNK6open3d4core7HashMap2ToERKNS0_6DeviceEb(ptr dead_on_unwind writable sret(%"class.open3d::core::HashMap") align 8 %9, ptr noundef nonnull align 8 dereferenceable(152) %15, ptr noundef nonnull align 4 dereferenceable(8) %16, i1 noundef zeroext %18)
  invoke void @_ZN6open3d4core7HashSetC1ERKNS0_7HashMapE(ptr noundef nonnull align 8 dereferenceable(24) %0, ptr noundef nonnull align 8 dereferenceable(152) %9)
          to label %19 unwind label %20

19:                                               ; preds = %4
  call void @_ZN6open3d4core7HashMapD2Ev(ptr noundef nonnull align 8 dereferenceable(152) %9) #19
  call void @llvm.lifetime.end.p0(i64 152, ptr %9) #19
  ret void

20:                                               ; preds = %4
  %21 = landingpad { ptr, i32 }
          cleanup
  %22 = extractvalue { ptr, i32 } %21, 0
  store ptr %22, ptr %10, align 8
  %23 = extractvalue { ptr, i32 } %21, 1
  store i32 %23, ptr %11, align 4
  call void @_ZN6open3d4core7HashMapD2Ev(ptr noundef nonnull align 8 dereferenceable(152) %9) #19
  call void @llvm.lifetime.end.p0(i64 152, ptr %9) #19
  br label %24

24:                                               ; preds = %20
  %25 = load ptr, ptr %10, align 8
  %26 = load i32, ptr %11, align 4
  %27 = insertvalue { ptr, i32 } poison, ptr %25, 0
  %28 = insertvalue { ptr, i32 } %27, i32 %26, 1
  resume { ptr, i32 } %28
}