; Function Attrs: mustprogress ssp uwtable
define void @_ZNK6open3d4core7HashSet2ToERKNS0_6DeviceEb(ptr dead_on_unwind noalias writable sret(%"class.open3d::core::HashSet") align 8 %0, ptr noundef nonnull readonly align 8 captures(none) dereferenceable(24) %1, ptr noundef nonnull align 4 dereferenceable(8) %2, i1 noundef zeroext %3) local_unnamed_addr #1 align 2 personality ptr @__gxx_personality_v0 {
  %5 = alloca %"class.open3d::core::HashMap", align 8
  call void @llvm.lifetime.start.p0(i64 152, ptr nonnull %5) #19
  %6 = getelementptr inbounds nuw i8, ptr %1, i64 8
  %7 = load ptr, ptr %6, align 8, !tbaa !19
  call void @_ZNK6open3d4core7HashMap2ToERKNS0_6DeviceEb(ptr dead_on_unwind nonnull writable sret(%"class.open3d::core::HashMap") align 8 %5, ptr noundef nonnull align 8 dereferenceable(152) %7, ptr noundef nonnull align 4 dereferenceable(8) %2, i1 noundef zeroext %3)
  invoke void @_ZN6open3d4core7HashSetC1ERKNS0_7HashMapE(ptr noundef nonnull align 8 dereferenceable(24) %0, ptr noundef nonnull align 8 dereferenceable(152) %5)
          to label %8 unwind label %9

8:                                                ; preds = %4
  call void @_ZN6open3d4core7HashMapD2Ev(ptr noundef nonnull align 8 dereferenceable(152) %5) #19
  call void @llvm.lifetime.end.p0(i64 152, ptr nonnull %5) #19
  ret void

9:                                                ; preds = %4
  %10 = landingpad { ptr, i32 }
          cleanup
  call void @_ZN6open3d4core7HashMapD2Ev(ptr noundef nonnull align 8 dereferenceable(152) %5) #19
  call void @llvm.lifetime.end.p0(i64 152, ptr nonnull %5) #19
  resume { ptr, i32 } %10
}